target datalayout = "e-m:e-p270:32:32-p271:32:32-p272:64:64-i64:64-i128:128-f80:128-n8:16:32:64-S128"
target triple = "x86_64-pc-linux-gnu"

%"class.rocksdb::Slice" = type { ptr, i64 }
%"struct.rocksdb::BlobLogRecord" = type { i64, i64, i64, i32, i32, %"class.rocksdb::Slice", %"class.rocksdb::Slice", %"class.std::unique_ptr.49", %"class.std::unique_ptr.49" }
%"class.std::unique_ptr.49" = type { %"struct.std::__uniq_ptr_data.50" }
%"struct.std::__uniq_ptr_data.50" = type { %"class.std::__uniq_ptr_impl.51" }
%"class.std::__uniq_ptr_impl.51" = type { %"class.std::tuple.52" }
%"class.std::tuple.52" = type { %"struct.std::_Tuple_impl.53" }
%"struct.std::_Tuple_impl.53" = type { %"struct.std::_Head_base.56" }
%"struct.std::_Head_base.56" = type { ptr }

@.str = private unnamed_addr constant [1 x i8] zeroinitializer, align 1

; Function Attrs: mustprogress nounwind uwtable
define linkonce_odr void @_ZNSt10_Head_baseILm1ESt14default_deleteIA_cELb1EEC2Ev(ptr noundef nonnull align 1 dereferenceable(1) %0) unnamed_addr #3 comdat align 2 {
  %2 = alloca ptr, align 8
  store ptr %0, ptr %2, align 8, !tbaa !292
  ret void
}

; Function Attrs: mustprogress nounwind uwtable
define linkonce_odr void @_ZNSt10_Head_baseILm0EPcLb0EEC2Ev(ptr noundef nonnull align 8 dereferenceable(8) %0) unnamed_addr #3 comdat align 2 {
  %2 = alloca ptr, align 8
  store ptr %0, ptr %2, align 8, !tbaa !289
  %3 = load ptr, ptr %2, align 8
  %4 = getelementptr inbounds nuw %"struct.std::_Head_base.56", ptr %3, i32 0, i32 0
  store ptr null, ptr %4, align 8, !tbaa !291
  ret void
}

; Function Attrs: mustprogress uwtable
define linkonce_odr void @_ZNSt11_Tuple_implILm1EJSt14default_deleteIA_cEEEC2Ev(ptr noundef nonnull align 1 dereferenceable(1) %0) unnamed_addr #5 comdat align 2 {
  %2 = alloca ptr, align 8
  store ptr %0, ptr %2, align 8, !tbaa !287
  %3 = load ptr, ptr %2, align 8
  call void @_ZNSt10_Head_baseILm1ESt14default_deleteIA_cELb1EEC2Ev(ptr noundef nonnull align 1 dereferenceable(1) %3)
  ret void
}

; Function Attrs: noinline noreturn nounwind uwtable
define linkonce_odr hidden void @__clang_call_terminate(ptr noundef %0) #9 comdat {
  %2 = call ptr @__cxa_begin_catch(ptr %0) #4
  call void @_ZSt9terminatev() #19
  unreachable
}

; Function Attrs: mustprogress uwtable
define linkonce_odr void @_ZNSt11_Tuple_implILm0EJPcSt14default_deleteIA_cEEEC2Ev(ptr noundef nonnull align 8 dereferenceable(8) %0) unnamed_addr #5 comdat align 2 {
  %2 = alloca ptr, align 8
  store ptr %0, ptr %2, align 8, !tbaa !285
  %3 = load ptr, ptr %2, align 8
  call void @_ZNSt11_Tuple_implILm1EJSt14default_deleteIA_cEEEC2Ev(ptr noundef nonnull align 1 dereferenceable(1) %3)
  call void @_ZNSt10_Head_baseILm0EPcLb0EEC2Ev(ptr noundef nonnull align 8 dereferenceable(8) %3)
  ret void
}

; Function Attrs: mustprogress nounwind uwtable
define linkonce_odr void @_ZNSt5tupleIJPcSt14default_deleteIA_cEEEC2ILb1ETnNSt9enable_ifIXclsr17_TupleConstraintsIXT_ES0_S3_EE37__is_implicitly_default_constructibleEEbE4typeELb1EEEv(ptr noundef nonnull align 8 dereferenceable(8) %0) unnamed_addr #3 comdat align 2 personality ptr @__gxx_personality_v0 {
  %2 = alloca ptr, align 8
  store ptr %0, ptr %2, align 8, !tbaa !283
  %3 = load ptr, ptr %2, align 8
  invoke void @_ZNSt11_Tuple_implILm0EJPcSt14default_deleteIA_cEEEC2Ev(ptr noundef nonnull align 8 dereferenceable(8) %3)
          to label %4 unwind label %5

4:                                                ; preds = %1
  ret void

5:                                                ; preds = %1
  %6 = landingpad { ptr, i32 }
          catch ptr null
  %7 = extractvalue { ptr, i32 } %6, 0
  call void @__clang_call_terminate(ptr %7) #19
  unreachable
}

; Function Attrs: mustprogress nounwind uwtable
define linkonce_odr void @_ZNSt15__uniq_ptr_implIcSt14default_deleteIA_cEEC2Ev(ptr noundef nonnull align 8 dereferenceable(8) %0) unnamed_addr #3 comdat align 2 {
  %2 = alloca ptr, align 8
  store ptr %0, ptr %2, align 8, !tbaa !281
  %3 = load ptr, ptr %2, align 8
  %4 = getelementptr inbounds nuw %"class.std::__uniq_ptr_impl.51", ptr %3, i32 0, i32 0
  call void @_ZNSt5tupleIJPcSt14default_deleteIA_cEEEC2ILb1ETnNSt9enable_ifIXclsr17_TupleConstraintsIXT_ES0_S3_EE37__is_implicitly_default_constructibleEEbE4typeELb1EEEv(ptr noundef nonnull align 8 dereferenceable(8) %4) #4
  ret void
}

; Function Attrs: inlinehint mustprogress nounwind uwtable
define linkonce_odr void @_ZNSt15__uniq_ptr_dataIcSt14default_deleteIA_cELb1ELb1EEC2Ev(ptr noundef nonnull align 8 dereferenceable(8) %0) unnamed_addr #1 comdat align 2 {
  %2 = alloca ptr, align 8
  store ptr %0, ptr %2, align 8, !tbaa !279
  %3 = load ptr, ptr %2, align 8
  call void @_ZNSt15__uniq_ptr_implIcSt14default_deleteIA_cEEC2Ev(ptr noundef nonnull align 8 dereferenceable(8) %3) #4
  ret void
}

; Function Attrs: mustprogress nounwind uwtable
define linkonce_odr void @_ZNSt10unique_ptrIA_cSt14default_deleteIS0_EEC2IS2_vEEv(ptr noundef nonnull align 8 dereferenceable(8) %0) unnamed_addr #3 comdat align 2 {
  %2 = alloca ptr, align 8
  store ptr %0, ptr %2, align 8, !tbaa !277
  %3 = load ptr, ptr %2, align 8
  %4 = getelementptr inbounds nuw %"class.std::unique_ptr.49", ptr %3, i32 0, i32 0
  call void @llvm.memset.p0.i64(ptr align 8 %4, i8 0, i64 8, i1 false)
  call void @_ZNSt15__uniq_ptr_dataIcSt14default_deleteIA_cELb1ELb1EEC2Ev(ptr noundef nonnull align 8 dereferenceable(8) %4) #4
  ret void
}

; Function Attrs: mustprogress nounwind uwtable
define linkonce_odr void @_ZN7rocksdb5SliceC2Ev(ptr noundef nonnull align 8 dereferenceable(16) %0) unnamed_addr #3 comdat align 2 {
  %2 = alloca ptr, align 8
  store ptr %0, ptr %2, align 8, !tbaa !10
  %3 = load ptr, ptr %2, align 8
  %4 = getelementptr inbounds nuw %"class.rocksdb::Slice", ptr %3, i32 0, i32 0
  store ptr @.str, ptr %4, align 8, !tbaa !128
  %5 = getelementptr inbounds nuw %"class.rocksdb::Slice", ptr %3, i32 0, i32 1
  store i64 0, ptr %5, align 8, !tbaa !13
  ret void
}

; Function Attrs: inlinehint mustprogress uwtable
define linkonce_odr void @_ZN7rocksdb13BlobLogRecordC2Ev(ptr noundef nonnull align 8 dereferenceable(80) %0) unnamed_addr #7 comdat align 2 {
  %2 = alloca ptr, align 8
  store ptr %0, ptr %2, align 8, !tbaa !141
  %3 = load ptr, ptr %2, align 8
  %4 = getelementptr inbounds nuw %"struct.rocksdb::BlobLogRecord", ptr %3, i32 0, i32 0
  store i64 0, ptr %4, align 8, !tbaa !143
  %5 = getelementptr inbounds nuw %"struct.rocksdb::BlobLogRecord", ptr %3, i32 0, i32 1
  store i64 0, ptr %5, align 8, !tbaa !144
  %6 = getelementptr inbounds nuw %"struct.rocksdb::BlobLogRecord", ptr %3, i32 0, i32 2
  store i64 0, ptr %6, align 8, !tbaa !133
  %7 = getelementptr inbounds nuw %"struct.rocksdb::BlobLogRecord", ptr %3, i32 0, i32 3
  store i32 0, ptr %7, align 8, !tbaa !145
  %8 = getelementptr inbounds nuw %"struct.rocksdb::BlobLogRecord", ptr %3, i32 0, i32 4
  store i32 0, ptr %8, align 4, !tbaa !146
  %9 = getelementptr inbounds nuw %"struct.rocksdb::BlobLogRecord", ptr %3, i32 0, i32 5
  call void @_ZN7rocksdb5SliceC2Ev(ptr noundef nonnull align 8 dereferenceable(16) %9)
  %10 = getelementptr inbounds nuw %"struct.rocksdb::BlobLogRecord", ptr %3, i32 0, i32 6
  call void @_ZN7rocksdb5SliceC2Ev(ptr noundef nonnull align 8 dereferenceable(16) %10)
  %11 = getelementptr inbounds nuw %"struct.rocksdb::BlobLogRecord", ptr %3, i32 0, i32 7
  call void @_ZNSt10unique_ptrIA_cSt14default_deleteIS0_EEC2IS2_vEEv(ptr noundef nonnull align 8 dereferenceable(8) %11) #4
  %12 = getelementptr inbounds nuw %"struct.rocksdb::BlobLogRecord", ptr %3, i32 0, i32 8
  call void @_ZNSt10unique_ptrIA_cSt14default_deleteIS0_EEC2IS2_vEEv(ptr noundef nonnull align 8 dereferenceable(8) %12) #4
  ret void
}

; Function Attrs: mustprogress uwtable
define void @_ZN7rocksdb13BlobLogWriter19ConstructBlobHeaderEPNSt7__cxx1112basic_stringIcSt11char_traitsIcESaIcEEERKNS_5SliceESA_m(ptr noundef %0, ptr noundef nonnull align 8 dereferenceable(16) %1, ptr noundef nonnull align 8 dereferenceable(16) %2, i64 noundef %3) #5 align 2 personality ptr @__gxx_personality_v0 {
  %5 = alloca ptr, align 8
  %6 = alloca ptr, align 8
  %7 = alloca ptr, align 8
  %8 = alloca i64, align 8
  %9 = alloca %"struct.rocksdb::BlobLogRecord", align 8
  %10 = alloca ptr, align 8
  %11 = alloca i32, align 4
  store ptr %0, ptr %5, align 8, !tbaa !28
  store ptr %1, ptr %6, align 8, !tbaa !10
  store ptr %2, ptr %7, align 8, !tbaa !10
  store i64 %3, ptr %8, align 8, !tbaa !4
  call void @llvm.lifetime.start.p0(i64 80, ptr %9) #4
  call void @_ZN7rocksdb13BlobLogRecordC2Ev(ptr noundef nonnull align 8 dereferenceable(80) %9)
  %12 = load ptr, ptr %6, align 8, !tbaa !10
  %13 = getelementptr inbounds nuw %"struct.rocksdb::BlobLogRecord", ptr %9, i32 0, i32 5
  call void @llvm.memcpy.p0.p0.i64(ptr align 8 %13, ptr align 8 %12, i64 16, i1 false), !tbaa.struct !132
  %14 = load ptr, ptr %7, align 8, !tbaa !10
  %15 = getelementptr inbounds nuw %"struct.rocksdb::BlobLogRecord", ptr %9, i32 0, i32 6
  call void @llvm.memcpy.p0.p0.i64(ptr align 8 %15, ptr align 8 %14, i64 16, i1 false), !tbaa.struct !132
  %16 = load i64, ptr %8, align 8, !tbaa !4
  %17 = getelementptr inbounds nuw %"struct.rocksdb::BlobLogRecord", ptr %9, i32 0, i32 2
  store i64 %16, ptr %17, align 8, !tbaa !133
  %18 = load ptr, ptr %5, align 8, !tbaa !28
  invoke void @_ZN7rocksdb13BlobLogRecord14EncodeHeaderToEPNSt7__cxx1112basic_stringIcSt11char_traitsIcESaIcEEE(ptr noundef nonnull align 8 dereferenceable(80) %9, ptr noundef %18)
          to label %19 unwind label %20

19:                                               ; preds = %4
  call void @_ZN7rocksdb13BlobLogRecordD2Ev(ptr noundef nonnull align 8 dereferenceable(80) %9) #4
  call void @llvm.lifetime.end.p0(i64 80, ptr %9) #4
  ret void

20:                                               ; preds = %4
  %21 = landingpad { ptr, i32 }
          cleanup
  %22 = extractvalue { ptr, i32 } %21, 0
  store ptr %22, ptr %10, align 8
  %23 = extractvalue { ptr, i32 } %21, 1
  store i32 %23, ptr %11, align 4
  call void @_ZN7rocksdb13BlobLogRecordD2Ev(ptr noundef nonnull align 8 dereferenceable(80) %9) #4
  call void @llvm.lifetime.end.p0(i64 80, ptr %9) #4
  br label %24

24:                                               ; preds = %20
  %25 = load ptr, ptr %10, align 8
  %26 = load i32, ptr %11, align 4
  %27 = insertvalue { ptr, i32 } poison, ptr %25, 0
  %28 = insertvalue { ptr, i32 } %27, i32 %26, 1
  resume { ptr, i32 } %28
}