; Function Attrs: mustprogress uwtable
define void @_ZN7rocksdb13BlobLogWriter19ConstructBlobHeaderEPNSt7__cxx1112basic_stringIcSt11char_traitsIcESaIcEEERKNS_5SliceESA_m(ptr noundef %0, ptr noundef nonnull readonly align 8 captures(none) dereferenceable(16) %1, ptr noundef nonnull readonly align 8 captures(none) dereferenceable(16) %2, i64 noundef %3) local_unnamed_addr #5 align 2 personality ptr @__gxx_personality_v0 {
  %5 = alloca %"struct.rocksdb::BlobLogRecord", align 8
  call void @llvm.lifetime.start.p0(i64 80, ptr nonnull %5) #20
  %6 = getelementptr inbounds nuw i8, ptr %5, i64 32
  call void @llvm.memset.p0.i64(ptr noundef nonnull align 8 dereferenceable(80) %5, i8 0, i64 32, i1 false)
  %7 = getelementptr inbounds nuw i8, ptr %5, i64 48
  %8 = getelementptr inbounds nuw i8, ptr %5, i64 64
  call void @llvm.memset.p0.i64(ptr noundef nonnull align 8 dereferenceable(16) %8, i8 0, i64 16, i1 false)
  call void @llvm.memcpy.p0.p0.i64(ptr noundef nonnull align 8 dereferenceable(16) %6, ptr noundef nonnull align 8 dereferenceable(16) %1, i64 16, i1 false), !tbaa.struct !107
  call void @llvm.memcpy.p0.p0.i64(ptr noundef nonnull align 8 dereferenceable(16) %7, ptr noundef nonnull align 8 dereferenceable(16) %2, i64 16, i1 false), !tbaa.struct !107
  %9 = getelementptr inbounds nuw i8, ptr %5, i64 16
  store i64 %3, ptr %9, align 8, !tbaa !108
  invoke void @_ZN7rocksdb13BlobLogRecord14EncodeHeaderToEPNSt7__cxx1112basic_stringIcSt11char_traitsIcESaIcEEE(ptr noundef nonnull align 8 dereferenceable(80) %5, ptr noundef %0)
          to label %10 unwind label %15

10:                                               ; preds = %4
  %11 = getelementptr inbounds nuw i8, ptr %5, i64 72
  %12 = load ptr, ptr %11, align 8, !tbaa !96
  %.not.i.i = icmp eq ptr %12, null
  br i1 %.not.i.i, label %_ZNSt10unique_ptrIA_cSt14default_deleteIS0_EED2Ev.exit.i, label %_ZNKSt14default_deleteIA_cEclIcEENSt9enable_ifIXsr14is_convertibleIPA_T_PS0_EE5valueEvE4typeEPS4_.exit.i.i

_ZNKSt14default_deleteIA_cEclIcEENSt9enable_ifIXsr14is_convertibleIPA_T_PS0_EE5valueEvE4typeEPS4_.exit.i.i: ; preds = %10
  call void @_ZdaPv(ptr noundef nonnull %12) #19
  br label %_ZNSt10unique_ptrIA_cSt14default_deleteIS0_EED2Ev.exit.i

_ZNSt10unique_ptrIA_cSt14default_deleteIS0_EED2Ev.exit.i: ; preds = %_ZNKSt14default_deleteIA_cEclIcEENSt9enable_ifIXsr14is_convertibleIPA_T_PS0_EE5valueEvE4typeEPS4_.exit.i.i, %10
  store ptr null, ptr %11, align 8, !tbaa !96
  %13 = getelementptr inbounds nuw i8, ptr %5, i64 64
  %14 = load ptr, ptr %13, align 8, !tbaa !96
  %.not.i1.i = icmp eq ptr %14, null
  br i1 %.not.i1.i, label %_ZN7rocksdb13BlobLogRecordD2Ev.exit, label %_ZNKSt14default_deleteIA_cEclIcEENSt9enable_ifIXsr14is_convertibleIPA_T_PS0_EE5valueEvE4typeEPS4_.exit.i2.i

_ZNKSt14default_deleteIA_cEclIcEENSt9enable_ifIXsr14is_convertibleIPA_T_PS0_EE5valueEvE4typeEPS4_.exit.i2.i: ; preds = %_ZNSt10unique_ptrIA_cSt14default_deleteIS0_EED2Ev.exit.i
  call void @_ZdaPv(ptr noundef nonnull %14) #19
  br label %_ZN7rocksdb13BlobLogRecordD2Ev.exit

_ZN7rocksdb13BlobLogRecordD2Ev.exit:              ; preds = %_ZNSt10unique_ptrIA_cSt14default_deleteIS0_EED2Ev.exit.i, %_ZNKSt14default_deleteIA_cEclIcEENSt9enable_ifIXsr14is_convertibleIPA_T_PS0_EE5valueEvE4typeEPS4_.exit.i2.i
  call void @llvm.lifetime.end.p0(i64 80, ptr nonnull %5) #20
  ret void

15:                                               ; preds = %4
  %16 = landingpad { ptr, i32 }
          cleanup
  call void @_ZN7rocksdb13BlobLogRecordD2Ev(ptr noundef nonnull align 8 dereferenceable(80) %5) #20
  call void @llvm.lifetime.end.p0(i64 80, ptr nonnull %5) #20
  resume { ptr, i32 } %16
}